target datalayout = "e-m:e-p270:32:32-p271:32:32-p272:64:64-i64:64-i128:128-f80:128-n8:16:32:64-S128"
target triple = "x86_64-pc-linux-gnu"

; Function Attrs: nounwind uwtable
define i32 @wolfSSL_SetTmpDH(ptr noundef %0, ptr noundef %1, i32 noundef %2, ptr noundef %3, i32 noundef %4) #0 {
  %6 = alloca ptr, align 8
  %7 = alloca ptr, align 8
  %8 = alloca i32, align 4
  %9 = alloca ptr, align 8
  %10 = alloca i32, align 4
  %11 = alloca i32, align 4
  %12 = alloca ptr, align 8
  %13 = alloca ptr, align 8
  %14 = alloca ptr, align 8
  %15 = alloca ptr, align 8
  store ptr %0, ptr %6, align 8, !tbaa !61
  store ptr %1, ptr %7, align 8, !tbaa !21
  store i32 %2, ptr %8, align 4, !tbaa !7
  store ptr %3, ptr %9, align 8, !tbaa !21
  store i32 %4, ptr %10, align 4, !tbaa !7
  call void @llvm.lifetime.start.p0(i64 4, ptr %11) #9
  store i32 1, ptr %11, align 4, !tbaa !7
  call void @llvm.lifetime.start.p0(i64 8, ptr %12) #9
  store ptr null, ptr %12, align 8, !tbaa !21
  call void @llvm.lifetime.start.p0(i64 8, ptr %13) #9
  store ptr null, ptr %13, align 8, !tbaa !21
  br label %16

16:                                               ; preds = %5
  br label %17

17:                                               ; preds = %16
  br label %18

18:                                               ; preds = %17
  %19 = load ptr, ptr %6, align 8, !tbaa !61
  %20 = icmp eq ptr %19, null
  br i1 %20, label %27, label %21

21:                                               ; preds = %18
  %22 = load ptr, ptr %7, align 8, !tbaa !21
  %23 = icmp eq ptr %22, null
  br i1 %23, label %27, label %24

24:                                               ; preds = %21
  %25 = load ptr, ptr %9, align 8, !tbaa !21
  %26 = icmp eq ptr %25, null
  br i1 %26, label %27, label %28

27:                                               ; preds = %24, %21, %18
  store i32 0, ptr %11, align 4, !tbaa !7
  br label %28

28:                                               ; preds = %27, %24
  %29 = load i32, ptr %11, align 4, !tbaa !7
  %30 = icmp eq i32 %29, 1
  br i1 %30, label %31, label %45

31:                                               ; preds = %28
  %32 = load i32, ptr %8, align 4, !tbaa !7
  %33 = sext i32 %32 to i64
  %34 = call ptr @wolfSSL_Malloc(i64 noundef %33)
  store ptr %34, ptr %12, align 8, !tbaa !21
  %35 = load i32, ptr %10, align 4, !tbaa !7
  %36 = sext i32 %35 to i64
  %37 = call ptr @wolfSSL_Malloc(i64 noundef %36)
  store ptr %37, ptr %13, align 8, !tbaa !21
  %38 = load ptr, ptr %12, align 8, !tbaa !21
  %39 = icmp eq ptr %38, null
  br i1 %39, label %43, label %40

40:                                               ; preds = %31
  %41 = load ptr, ptr %13, align 8, !tbaa !21
  %42 = icmp eq ptr %41, null
  br i1 %42, label %43, label %44

43:                                               ; preds = %40, %31
  store i32 -125, ptr %11, align 4, !tbaa !7
  br label %44

44:                                               ; preds = %43, %40
  br label %45

45:                                               ; preds = %44, %28
  %46 = load i32, ptr %11, align 4, !tbaa !7
  %47 = icmp eq i32 %46, 1
  br i1 %47, label %48, label %63

48:                                               ; preds = %45
  %49 = load ptr, ptr %12, align 8, !tbaa !21
  %50 = load ptr, ptr %7, align 8, !tbaa !21
  %51 = load i32, ptr %8, align 4, !tbaa !7
  %52 = sext i32 %51 to i64
  call void @llvm.memcpy.p0.p0.i64(ptr align 1 %49, ptr align 1 %50, i64 %52, i1 false)
  %53 = load ptr, ptr %13, align 8, !tbaa !21
  %54 = load ptr, ptr %9, align 8, !tbaa !21
  %55 = load i32, ptr %10, align 4, !tbaa !7
  %56 = sext i32 %55 to i64
  call void @llvm.memcpy.p0.p0.i64(ptr align 1 %53, ptr align 1 %54, i64 %56, i1 false)
  %57 = load ptr, ptr %6, align 8, !tbaa !61
  %58 = load ptr, ptr %12, align 8, !tbaa !21
  %59 = load i32, ptr %8, align 4, !tbaa !7
  %60 = load ptr, ptr %13, align 8, !tbaa !21
  %61 = load i32, ptr %10, align 4, !tbaa !7
  %62 = call i32 @wolfssl_set_tmp_dh(ptr noundef %57, ptr noundef %58, i32 noundef %59, ptr noundef %60, i32 noundef %61)
  store i32 %62, ptr %11, align 4, !tbaa !7
  br label %63

63:                                               ; preds = %48, %45
  %64 = load i32, ptr %11, align 4, !tbaa !7
  %65 = icmp ne i32 %64, 1
  br i1 %65, label %66, label %88

66:                                               ; preds = %63
  %67 = load ptr, ptr %6, align 8, !tbaa !61
  %68 = icmp ne ptr %67, null
  br i1 %68, label %69, label %88

69:                                               ; preds = %66
  br label %70

70:                                               ; preds = %69
  call void @llvm.lifetime.start.p0(i64 8, ptr %14) #9
  %71 = load ptr, ptr %12, align 8, !tbaa !21
  store ptr %71, ptr %14, align 8, !tbaa !3
  %72 = load ptr, ptr %14, align 8, !tbaa !3
  %73 = icmp ne ptr %72, null
  br i1 %73, label %74, label %76

74:                                               ; preds = %70
  %75 = load ptr, ptr %14, align 8, !tbaa !3
  call void @wolfSSL_Free(ptr noundef %75)
  br label %76

76:                                               ; preds = %74, %70
  call void @llvm.lifetime.end.p0(i64 8, ptr %14) #9
  br label %77

77:                                               ; preds = %76
  br label %78

78:                                               ; preds = %77
  br label %79

79:                                               ; preds = %78
  call void @llvm.lifetime.start.p0(i64 8, ptr %15) #9
  %80 = load ptr, ptr %13, align 8, !tbaa !21
  store ptr %80, ptr %15, align 8, !tbaa !3
  %81 = load ptr, ptr %15, align 8, !tbaa !3
  %82 = icmp ne ptr %81, null
  br i1 %82, label %83, label %85

83:                                               ; preds = %79
  %84 = load ptr, ptr %15, align 8, !tbaa !3
  call void @wolfSSL_Free(ptr noundef %84)
  br label %85

85:                                               ; preds = %83, %79
  call void @llvm.lifetime.end.p0(i64 8, ptr %15) #9
  br label %86

86:                                               ; preds = %85
  br label %87

87:                                               ; preds = %86
  br label %88

88:                                               ; preds = %87, %66, %63
  br label %89

89:                                               ; preds = %88
  br label %90

90:                                               ; preds = %89
  br label %91

91:                                               ; preds = %90
  %92 = load i32, ptr %11, align 4, !tbaa !7
  call void @llvm.lifetime.end.p0(i64 8, ptr %13) #9
  call void @llvm.lifetime.end.p0(i64 8, ptr %12) #9
  call void @llvm.lifetime.end.p0(i64 4, ptr %11) #9
  ret i32 %92
}