; Function Attrs: nounwind uwtable
define range(i32 -401, 2) i32 @wolfSSL_SetTmpDH(ptr noundef %0, ptr noundef readonly captures(address_is_null) %1, i32 noundef %2, ptr noundef readonly captures(address_is_null) %3, i32 noundef %4) local_unnamed_addr #0 {
  %6 = icmp ne ptr %0, null
  %7 = icmp ne ptr %1, null
  %8 = icmp ne ptr %3, null
  %9 = and i1 %7, %8
  %or.cond3.not = and i1 %6, %9
  br i1 %or.cond3.not, label %10, label %.thread65

10:                                               ; preds = %5
  %11 = sext i32 %2 to i64
  %12 = tail call ptr @wolfSSL_Malloc(i64 noundef %11) #22
  %13 = sext i32 %4 to i64
  %14 = tail call ptr @wolfSSL_Malloc(i64 noundef %13) #22
  %15 = icmp ne ptr %12, null
  %16 = icmp ne ptr %14, null
  %or.cond5.not = select i1 %15, i1 %16, i1 false
  br i1 %or.cond5.not, label %17, label %19

17:                                               ; preds = %10
  tail call void @llvm.memcpy.p0.p0.i64(ptr nonnull align 1 %12, ptr nonnull align 1 %1, i64 %11, i1 false)
  tail call void @llvm.memcpy.p0.p0.i64(ptr nonnull align 1 %14, ptr nonnull align 1 %3, i64 %13, i1 false)
  %18 = tail call fastcc i32 @wolfssl_set_tmp_dh(ptr noundef nonnull %0, ptr noundef nonnull %12, i32 noundef %2, ptr noundef nonnull %14, i32 noundef %4)
  br label %19

19:                                               ; preds = %17, %10
  %.2 = phi i32 [ %18, %17 ], [ -125, %10 ]
  %.not71 = icmp eq i32 %.2, 1
  br i1 %.not71, label %.thread65, label %20

20:                                               ; preds = %19
  %.not = icmp eq ptr %12, null
  br i1 %.not, label %22, label %21

21:                                               ; preds = %20
  tail call void @wolfSSL_Free(ptr noundef nonnull %12) #22
  br label %22

22:                                               ; preds = %21, %20
  %.not42 = icmp eq ptr %14, null
  br i1 %.not42, label %.thread65, label %23

23:                                               ; preds = %22
  tail call void @wolfSSL_Free(ptr noundef nonnull %14) #22
  br label %.thread65

.thread65:                                        ; preds = %5, %22, %23, %19
  %.256 = phi i32 [ %.2, %22 ], [ %.2, %23 ], [ 1, %19 ], [ 0, %5 ]
  ret i32 %.256
}